target datalayout = "e-m:e-p270:32:32-p271:32:32-p272:64:64-i64:64-i128:128-f80:128-n8:16:32:64-S128"
target triple = "x86_64-pc-linux-gnu"

@.str = private unnamed_addr constant [30 x i8] c"Assertion %s failed at %s:%d\0A\00", align 1
@.str.4 = private unnamed_addr constant [21 x i8] c"scaling_size <= 4096\00", align 1
@.str.5 = private unnamed_addr constant [37 x i8] c"libavcodec/aom_film_grain_template.c\00", align 1

; Function Attrs: nounwind uwtable
define internal void @generate_scaling_16(ptr noundef %0, i32 noundef %1, ptr noundef %2, i32 noundef %3) #0 {
  %5 = alloca ptr, align 8
  %6 = alloca i32, align 4
  %7 = alloca ptr, align 8
  %8 = alloca i32, align 4
  %9 = alloca i32, align 4
  %10 = alloca i32, align 4
  %11 = alloca i32, align 4
  %12 = alloca i32, align 4
  %13 = alloca i32, align 4
  %14 = alloca i32, align 4
  %15 = alloca i32, align 4
  %16 = alloca i32, align 4
  %17 = alloca i32, align 4
  %18 = alloca i32, align 4
  %19 = alloca i32, align 4
  %20 = alloca i32, align 4
  %21 = alloca i32, align 4
  %22 = alloca i32, align 4
  %23 = alloca i32, align 4
  %24 = alloca i32, align 4
  %25 = alloca i32, align 4
  %26 = alloca i32, align 4
  %27 = alloca i32, align 4
  %28 = alloca i32, align 4
  %29 = alloca i32, align 4
  %30 = alloca i32, align 4
  %31 = alloca i32, align 4
  %32 = alloca i32, align 4
  store ptr %0, ptr %5, align 8, !tbaa !37
  store i32 %1, ptr %6, align 4, !tbaa !30
  store ptr %2, ptr %7, align 8, !tbaa !37
  store i32 %3, ptr %8, align 4, !tbaa !30
  call void @llvm.lifetime.start.p0(i64 4, ptr %9) #9
  %33 = load i32, ptr %8, align 4, !tbaa !30
  %34 = sub nsw i32 %33, 8
  store i32 %34, ptr %9, align 4, !tbaa !30
  call void @llvm.lifetime.start.p0(i64 4, ptr %10) #9
  %35 = load i32, ptr %8, align 4, !tbaa !30
  %36 = shl i32 1, %35
  store i32 %36, ptr %10, align 4, !tbaa !30
  call void @llvm.lifetime.start.p0(i64 4, ptr %11) #9
  %37 = load ptr, ptr %5, align 8, !tbaa !37
  %38 = load i32, ptr %6, align 4, !tbaa !30
  %39 = sub nsw i32 %38, 1
  %40 = sext i32 %39 to i64
  %41 = getelementptr inbounds [2 x i8], ptr %37, i64 %40
  %42 = getelementptr inbounds [2 x i8], ptr %41, i64 0, i64 0
  %43 = load i8, ptr %42, align 1, !tbaa !36
  %44 = zext i8 %43 to i32
  %45 = load i32, ptr %9, align 4, !tbaa !30
  %46 = shl i32 %44, %45
  store i32 %46, ptr %11, align 4, !tbaa !30
  br label %47

47:                                               ; preds = %4
  %48 = load i32, ptr %10, align 4, !tbaa !30
  %49 = icmp sle i32 %48, 4096
  br i1 %49, label %51, label %50

50:                                               ; preds = %47
  call void (ptr, i32, ptr, ...) @av_log(ptr noundef null, i32 noundef 0, ptr noundef @.str, ptr noundef @.str.4, ptr noundef @.str.5, i32 noundef 439)
  call void @abort() #10
  unreachable

51:                                               ; preds = %47
  br label %52

52:                                               ; preds = %51
  br label %53

53:                                               ; preds = %52
  %54 = load i32, ptr %6, align 4, !tbaa !30
  %55 = icmp eq i32 %54, 0
  br i1 %55, label %56, label %60

56:                                               ; preds = %53
  %57 = load ptr, ptr %7, align 8, !tbaa !37
  %58 = load i32, ptr %10, align 4, !tbaa !30
  %59 = sext i32 %58 to i64
  call void @llvm.memset.p0.i64(ptr align 1 %57, i8 0, i64 %59, i1 false)
  store i32 1, ptr %12, align 4
  br label %275

60:                                               ; preds = %53
  %61 = load ptr, ptr %7, align 8, !tbaa !37
  %62 = load ptr, ptr %5, align 8, !tbaa !37
  %63 = getelementptr inbounds [2 x i8], ptr %62, i64 0
  %64 = getelementptr inbounds [2 x i8], ptr %63, i64 0, i64 1
  %65 = load i8, ptr %64, align 1, !tbaa !36
  %66 = zext i8 %65 to i32
  %67 = trunc i32 %66 to i8
  %68 = load ptr, ptr %5, align 8, !tbaa !37
  %69 = getelementptr inbounds [2 x i8], ptr %68, i64 0
  %70 = getelementptr inbounds [2 x i8], ptr %69, i64 0, i64 0
  %71 = load i8, ptr %70, align 1, !tbaa !36
  %72 = zext i8 %71 to i32
  %73 = load i32, ptr %9, align 4, !tbaa !30
  %74 = shl i32 %72, %73
  %75 = sext i32 %74 to i64
  call void @llvm.memset.p0.i64(ptr align 1 %61, i8 %67, i64 %75, i1 false)
  call void @llvm.lifetime.start.p0(i64 4, ptr %13) #9
  store i32 0, ptr %13, align 4, !tbaa !30
  br label %76

76:                                               ; preds = %152, %60
  %77 = load i32, ptr %13, align 4, !tbaa !30
  %78 = load i32, ptr %6, align 4, !tbaa !30
  %79 = sub nsw i32 %78, 1
  %80 = icmp slt i32 %77, %79
  br i1 %80, label %82, label %81

81:                                               ; preds = %76
  store i32 4, ptr %12, align 4
  call void @llvm.lifetime.end.p0(i64 4, ptr %13) #9
  br label %155

82:                                               ; preds = %76
  call void @llvm.lifetime.start.p0(i64 4, ptr %14) #9
  %83 = load ptr, ptr %5, align 8, !tbaa !37
  %84 = load i32, ptr %13, align 4, !tbaa !30
  %85 = sext i32 %84 to i64
  %86 = getelementptr inbounds [2 x i8], ptr %83, i64 %85
  %87 = getelementptr inbounds [2 x i8], ptr %86, i64 0, i64 0
  %88 = load i8, ptr %87, align 1, !tbaa !36
  %89 = zext i8 %88 to i32
  store i32 %89, ptr %14, align 4, !tbaa !30
  call void @llvm.lifetime.start.p0(i64 4, ptr %15) #9
  %90 = load ptr, ptr %5, align 8, !tbaa !37
  %91 = load i32, ptr %13, align 4, !tbaa !30
  %92 = sext i32 %91 to i64
  %93 = getelementptr inbounds [2 x i8], ptr %90, i64 %92
  %94 = getelementptr inbounds [2 x i8], ptr %93, i64 0, i64 1
  %95 = load i8, ptr %94, align 1, !tbaa !36
  %96 = zext i8 %95 to i32
  store i32 %96, ptr %15, align 4, !tbaa !30
  call void @llvm.lifetime.start.p0(i64 4, ptr %16) #9
  %97 = load ptr, ptr %5, align 8, !tbaa !37
  %98 = load i32, ptr %13, align 4, !tbaa !30
  %99 = add nsw i32 %98, 1
  %100 = sext i32 %99 to i64
  %101 = getelementptr inbounds [2 x i8], ptr %97, i64 %100
  %102 = getelementptr inbounds [2 x i8], ptr %101, i64 0, i64 0
  %103 = load i8, ptr %102, align 1, !tbaa !36
  %104 = zext i8 %103 to i32
  store i32 %104, ptr %16, align 4, !tbaa !30
  call void @llvm.lifetime.start.p0(i64 4, ptr %17) #9
  %105 = load ptr, ptr %5, align 8, !tbaa !37
  %106 = load i32, ptr %13, align 4, !tbaa !30
  %107 = add nsw i32 %106, 1
  %108 = sext i32 %107 to i64
  %109 = getelementptr inbounds [2 x i8], ptr %105, i64 %108
  %110 = getelementptr inbounds [2 x i8], ptr %109, i64 0, i64 1
  %111 = load i8, ptr %110, align 1, !tbaa !36
  %112 = zext i8 %111 to i32
  store i32 %112, ptr %17, align 4, !tbaa !30
  call void @llvm.lifetime.start.p0(i64 4, ptr %18) #9
  %113 = load i32, ptr %16, align 4, !tbaa !30
  %114 = load i32, ptr %14, align 4, !tbaa !30
  %115 = sub nsw i32 %113, %114
  store i32 %115, ptr %18, align 4, !tbaa !30
  call void @llvm.lifetime.start.p0(i64 4, ptr %19) #9
  %116 = load i32, ptr %17, align 4, !tbaa !30
  %117 = load i32, ptr %15, align 4, !tbaa !30
  %118 = sub nsw i32 %116, %117
  store i32 %118, ptr %19, align 4, !tbaa !30
  call void @llvm.lifetime.start.p0(i64 4, ptr %20) #9
  %119 = load i32, ptr %19, align 4, !tbaa !30
  %120 = load i32, ptr %18, align 4, !tbaa !30
  %121 = ashr i32 %120, 1
  %122 = add nsw i32 65536, %121
  %123 = load i32, ptr %18, align 4, !tbaa !30
  %124 = sdiv i32 %122, %123
  %125 = mul nsw i32 %119, %124
  store i32 %125, ptr %20, align 4, !tbaa !30
  call void @llvm.lifetime.start.p0(i64 4, ptr %21) #9
  store i32 0, ptr %21, align 4, !tbaa !30
  call void @llvm.lifetime.start.p0(i64 4, ptr %22) #9
  store i32 32768, ptr %22, align 4, !tbaa !30
  br label %126

126:                                              ; preds = %148, %82
  %127 = load i32, ptr %21, align 4, !tbaa !30
  %128 = load i32, ptr %18, align 4, !tbaa !30
  %129 = icmp slt i32 %127, %128
  br i1 %129, label %131, label %130

130:                                              ; preds = %126
  store i32 7, ptr %12, align 4
  call void @llvm.lifetime.end.p0(i64 4, ptr %22) #9
  call void @llvm.lifetime.end.p0(i64 4, ptr %21) #9
  br label %151

131:                                              ; preds = %126
  %132 = load i32, ptr %15, align 4, !tbaa !30
  %133 = load i32, ptr %22, align 4, !tbaa !30
  %134 = ashr i32 %133, 16
  %135 = add nsw i32 %132, %134
  %136 = trunc i32 %135 to i8
  %137 = load ptr, ptr %7, align 8, !tbaa !37
  %138 = load i32, ptr %14, align 4, !tbaa !30
  %139 = load i32, ptr %21, align 4, !tbaa !30
  %140 = add nsw i32 %138, %139
  %141 = load i32, ptr %9, align 4, !tbaa !30
  %142 = shl i32 %140, %141
  %143 = sext i32 %142 to i64
  %144 = getelementptr inbounds i8, ptr %137, i64 %143
  store i8 %136, ptr %144, align 1, !tbaa !36
  %145 = load i32, ptr %20, align 4, !tbaa !30
  %146 = load i32, ptr %22, align 4, !tbaa !30
  %147 = add nsw i32 %146, %145
  store i32 %147, ptr %22, align 4, !tbaa !30
  br label %148

148:                                              ; preds = %131
  %149 = load i32, ptr %21, align 4, !tbaa !30
  %150 = add nsw i32 %149, 1
  store i32 %150, ptr %21, align 4, !tbaa !30
  br label %126, !llvm.loop !151

151:                                              ; preds = %130
  call void @llvm.lifetime.end.p0(i64 4, ptr %20) #9
  call void @llvm.lifetime.end.p0(i64 4, ptr %19) #9
  call void @llvm.lifetime.end.p0(i64 4, ptr %18) #9
  call void @llvm.lifetime.end.p0(i64 4, ptr %17) #9
  call void @llvm.lifetime.end.p0(i64 4, ptr %16) #9
  call void @llvm.lifetime.end.p0(i64 4, ptr %15) #9
  call void @llvm.lifetime.end.p0(i64 4, ptr %14) #9
  br label %152

152:                                              ; preds = %151
  %153 = load i32, ptr %13, align 4, !tbaa !30
  %154 = add nsw i32 %153, 1
  store i32 %154, ptr %13, align 4, !tbaa !30
  br label %76, !llvm.loop !152

155:                                              ; preds = %81
  %156 = load ptr, ptr %7, align 8, !tbaa !37
  %157 = load i32, ptr %11, align 4, !tbaa !30
  %158 = sext i32 %157 to i64
  %159 = getelementptr inbounds i8, ptr %156, i64 %158
  %160 = load ptr, ptr %5, align 8, !tbaa !37
  %161 = load i32, ptr %6, align 4, !tbaa !30
  %162 = sub nsw i32 %161, 1
  %163 = sext i32 %162 to i64
  %164 = getelementptr inbounds [2 x i8], ptr %160, i64 %163
  %165 = getelementptr inbounds [2 x i8], ptr %164, i64 0, i64 1
  %166 = load i8, ptr %165, align 1, !tbaa !36
  %167 = zext i8 %166 to i32
  %168 = trunc i32 %167 to i8
  %169 = load i32, ptr %10, align 4, !tbaa !30
  %170 = load i32, ptr %11, align 4, !tbaa !30
  %171 = sub nsw i32 %169, %170
  %172 = sext i32 %171 to i64
  call void @llvm.memset.p0.i64(ptr align 1 %159, i8 %168, i64 %172, i1 false)
  call void @llvm.lifetime.start.p0(i64 4, ptr %23) #9
  store i32 0, ptr %23, align 4, !tbaa !30
  br label %173

173:                                              ; preds = %271, %155
  %174 = load i32, ptr %23, align 4, !tbaa !30
  %175 = load i32, ptr %6, align 4, !tbaa !30
  %176 = sub nsw i32 %175, 1
  %177 = icmp slt i32 %174, %176
  br i1 %177, label %179, label %178

178:                                              ; preds = %173
  store i32 10, ptr %12, align 4
  call void @llvm.lifetime.end.p0(i64 4, ptr %23) #9
  br label %274

179:                                              ; preds = %173
  call void @llvm.lifetime.start.p0(i64 4, ptr %24) #9
  %180 = load i32, ptr %9, align 4, !tbaa !30
  %181 = shl i32 1, %180
  store i32 %181, ptr %24, align 4, !tbaa !30
  call void @llvm.lifetime.start.p0(i64 4, ptr %25) #9
  %182 = load i32, ptr %24, align 4, !tbaa !30
  %183 = ashr i32 %182, 1
  store i32 %183, ptr %25, align 4, !tbaa !30
  call void @llvm.lifetime.start.p0(i64 4, ptr %26) #9
  %184 = load ptr, ptr %5, align 8, !tbaa !37
  %185 = load i32, ptr %23, align 4, !tbaa !30
  %186 = sext i32 %185 to i64
  %187 = getelementptr inbounds [2 x i8], ptr %184, i64 %186
  %188 = getelementptr inbounds [2 x i8], ptr %187, i64 0, i64 0
  %189 = load i8, ptr %188, align 1, !tbaa !36
  %190 = zext i8 %189 to i32
  %191 = load i32, ptr %9, align 4, !tbaa !30
  %192 = shl i32 %190, %191
  store i32 %192, ptr %26, align 4, !tbaa !30
  call void @llvm.lifetime.start.p0(i64 4, ptr %27) #9
  %193 = load ptr, ptr %5, align 8, !tbaa !37
  %194 = load i32, ptr %23, align 4, !tbaa !30
  %195 = add nsw i32 %194, 1
  %196 = sext i32 %195 to i64
  %197 = getelementptr inbounds [2 x i8], ptr %193, i64 %196
  %198 = getelementptr inbounds [2 x i8], ptr %197, i64 0, i64 0
  %199 = load i8, ptr %198, align 1, !tbaa !36
  %200 = zext i8 %199 to i32
  %201 = load i32, ptr %9, align 4, !tbaa !30
  %202 = shl i32 %200, %201
  store i32 %202, ptr %27, align 4, !tbaa !30
  call void @llvm.lifetime.start.p0(i64 4, ptr %28) #9
  %203 = load i32, ptr %27, align 4, !tbaa !30
  %204 = load i32, ptr %26, align 4, !tbaa !30
  %205 = sub nsw i32 %203, %204
  store i32 %205, ptr %28, align 4, !tbaa !30
  call void @llvm.lifetime.start.p0(i64 4, ptr %29) #9
  store i32 0, ptr %29, align 4, !tbaa !30
  br label %206

206:                                              ; preds = %266, %179
  %207 = load i32, ptr %29, align 4, !tbaa !30
  %208 = load i32, ptr %28, align 4, !tbaa !30
  %209 = icmp slt i32 %207, %208
  br i1 %209, label %211, label %210

210:                                              ; preds = %206
  store i32 13, ptr %12, align 4
  call void @llvm.lifetime.end.p0(i64 4, ptr %29) #9
  br label %270

211:                                              ; preds = %206
  call void @llvm.lifetime.start.p0(i64 4, ptr %30) #9
  %212 = load ptr, ptr %7, align 8, !tbaa !37
  %213 = load i32, ptr %26, align 4, !tbaa !30
  %214 = load i32, ptr %29, align 4, !tbaa !30
  %215 = add nsw i32 %213, %214
  %216 = load i32, ptr %24, align 4, !tbaa !30
  %217 = add nsw i32 %215, %216
  %218 = sext i32 %217 to i64
  %219 = getelementptr inbounds i8, ptr %212, i64 %218
  %220 = load i8, ptr %219, align 1, !tbaa !36
  %221 = zext i8 %220 to i32
  %222 = load ptr, ptr %7, align 8, !tbaa !37
  %223 = load i32, ptr %26, align 4, !tbaa !30
  %224 = load i32, ptr %29, align 4, !tbaa !30
  %225 = add nsw i32 %223, %224
  %226 = sext i32 %225 to i64
  %227 = getelementptr inbounds i8, ptr %222, i64 %226
  %228 = load i8, ptr %227, align 1, !tbaa !36
  %229 = zext i8 %228 to i32
  %230 = sub nsw i32 %221, %229
  store i32 %230, ptr %30, align 4, !tbaa !30
  call void @llvm.lifetime.start.p0(i64 4, ptr %31) #9
  store i32 1, ptr %31, align 4, !tbaa !30
  call void @llvm.lifetime.start.p0(i64 4, ptr %32) #9
  %231 = load i32, ptr %25, align 4, !tbaa !30
  store i32 %231, ptr %32, align 4, !tbaa !30
  br label %232

232:                                              ; preds = %262, %211
  %233 = load i32, ptr %31, align 4, !tbaa !30
  %234 = load i32, ptr %24, align 4, !tbaa !30
  %235 = icmp slt i32 %233, %234
  br i1 %235, label %237, label %236

236:                                              ; preds = %232
  store i32 16, ptr %12, align 4
  call void @llvm.lifetime.end.p0(i64 4, ptr %32) #9
  call void @llvm.lifetime.end.p0(i64 4, ptr %31) #9
  br label %265

237:                                              ; preds = %232
  %238 = load i32, ptr %30, align 4, !tbaa !30
  %239 = load i32, ptr %32, align 4, !tbaa !30
  %240 = add nsw i32 %239, %238
  store i32 %240, ptr %32, align 4, !tbaa !30
  %241 = load ptr, ptr %7, align 8, !tbaa !37
  %242 = load i32, ptr %26, align 4, !tbaa !30
  %243 = load i32, ptr %29, align 4, !tbaa !30
  %244 = add nsw i32 %242, %243
  %245 = sext i32 %244 to i64
  %246 = getelementptr inbounds i8, ptr %241, i64 %245
  %247 = load i8, ptr %246, align 1, !tbaa !36
  %248 = zext i8 %247 to i32
  %249 = load i32, ptr %32, align 4, !tbaa !30
  %250 = load i32, ptr %9, align 4, !tbaa !30
  %251 = ashr i32 %249, %250
  %252 = add nsw i32 %248, %251
  %253 = trunc i32 %252 to i8
  %254 = load ptr, ptr %7, align 8, !tbaa !37
  %255 = load i32, ptr %26, align 4, !tbaa !30
  %256 = load i32, ptr %29, align 4, !tbaa !30
  %257 = add nsw i32 %255, %256
  %258 = load i32, ptr %31, align 4, !tbaa !30
  %259 = add nsw i32 %257, %258
  %260 = sext i32 %259 to i64
  %261 = getelementptr inbounds i8, ptr %254, i64 %260
  store i8 %253, ptr %261, align 1, !tbaa !36
  br label %262

262:                                              ; preds = %237
  %263 = load i32, ptr %31, align 4, !tbaa !30
  %264 = add nsw i32 %263, 1
  store i32 %264, ptr %31, align 4, !tbaa !30
  br label %232, !llvm.loop !153

265:                                              ; preds = %236
  call void @llvm.lifetime.end.p0(i64 4, ptr %30) #9
  br label %266

266:                                              ; preds = %265
  %267 = load i32, ptr %24, align 4, !tbaa !30
  %268 = load i32, ptr %29, align 4, !tbaa !30
  %269 = add nsw i32 %268, %267
  store i32 %269, ptr %29, align 4, !tbaa !30
  br label %206, !llvm.loop !154

270:                                              ; preds = %210
  call void @llvm.lifetime.end.p0(i64 4, ptr %28) #9
  call void @llvm.lifetime.end.p0(i64 4, ptr %27) #9
  call void @llvm.lifetime.end.p0(i64 4, ptr %26) #9
  call void @llvm.lifetime.end.p0(i64 4, ptr %25) #9
  call void @llvm.lifetime.end.p0(i64 4, ptr %24) #9
  br label %271

271:                                              ; preds = %270
  %272 = load i32, ptr %23, align 4, !tbaa !30
  %273 = add nsw i32 %272, 1
  store i32 %273, ptr %23, align 4, !tbaa !30
  br label %173, !llvm.loop !155

274:                                              ; preds = %178
  store i32 0, ptr %12, align 4
  br label %275

275:                                              ; preds = %274, %56
  call void @llvm.lifetime.end.p0(i64 4, ptr %11) #9
  call void @llvm.lifetime.end.p0(i64 4, ptr %10) #9
  call void @llvm.lifetime.end.p0(i64 4, ptr %9) #9
  %276 = load i32, ptr %12, align 4
  switch i32 %276, label %278 [
    i32 0, label %277
    i32 1, label %277
  ]

277:                                              ; preds = %275, %275
  ret void

278:                                              ; preds = %275
  unreachable
}