; Function Attrs: nofree norecurse nosync nounwind memory(argmem: readwrite) uwtable
define internal fastcc void @generate_scaling_16(ptr noundef readonly captures(none) %0, i32 noundef %1, ptr noundef nonnull captures(none) %2, i32 noundef range(i32 9, 13) %3) unnamed_addr #4 {
  %5 = add nsw i32 %3, -8
  %6 = shl nuw nsw i32 1, %3
  %7 = add nsw i32 %1, -1
  %8 = sext i32 %7 to i64
  %9 = getelementptr inbounds [2 x i8], ptr %0, i64 %8
  %10 = load i8, ptr %9, align 1, !tbaa !27
  %11 = zext i8 %10 to i32
  %12 = shl nuw nsw i32 %11, %5
  %13 = icmp eq i32 %1, 0
  br i1 %13, label %14, label %16

14:                                               ; preds = %4
  %15 = zext nneg i32 %6 to i64
  tail call void @llvm.memset.p0.i64(ptr noundef nonnull align 1 dereferenceable(1) %2, i8 0, i64 %15, i1 false)
  br label %.loopexit95

16:                                               ; preds = %4
  %17 = getelementptr inbounds nuw i8, ptr %0, i64 1
  %18 = load i8, ptr %17, align 1, !tbaa !27
  %19 = load i8, ptr %0, align 1, !tbaa !27
  %20 = zext i8 %19 to i32
  %21 = shl nuw nsw i32 %20, %5
  %22 = zext nneg i32 %21 to i64
  tail call void @llvm.memset.p0.i64(ptr nonnull align 1 %2, i8 %18, i64 %22, i1 false)
  %23 = icmp sgt i32 %1, 1
  br i1 %23, label %.lr.ph100.preheader, label %._crit_edge.thread

._crit_edge.thread:                               ; preds = %16
  %24 = zext nneg i32 %12 to i64
  %25 = getelementptr inbounds nuw i8, ptr %2, i64 %24
  %26 = getelementptr inbounds nuw i8, ptr %9, i64 1
  %27 = load i8, ptr %26, align 1, !tbaa !27
  %28 = sub nsw i32 %6, %12
  %29 = sext i32 %28 to i64
  tail call void @llvm.memset.p0.i64(ptr nonnull align 1 %25, i8 %27, i64 %29, i1 false)
  br label %.loopexit95

.lr.ph100.preheader:                              ; preds = %16
  %wide.trip.count = zext nneg i32 %7 to i64
  br label %.lr.ph100

.loopexit96:                                      ; preds = %.lr.ph, %.lr.ph100
  %exitcond115.not = icmp eq i64 %indvars.iv.next, %wide.trip.count
  br i1 %exitcond115.not, label %._crit_edge, label %.lr.ph100, !llvm.loop !146

._crit_edge:                                      ; preds = %.loopexit96
  %30 = zext nneg i32 %12 to i64
  %31 = getelementptr inbounds nuw i8, ptr %2, i64 %30
  %32 = getelementptr inbounds nuw i8, ptr %9, i64 1
  %33 = load i8, ptr %32, align 1, !tbaa !27
  %34 = sub nsw i32 %6, %12
  %35 = sext i32 %34 to i64
  tail call void @llvm.memset.p0.i64(ptr nonnull align 1 %31, i8 %33, i64 %35, i1 false)
  %36 = shl nuw nsw i32 1, %5
  %37 = lshr i32 %36, 1
  %umax = tail call i32 @llvm.umax.i32(i32 %36, i32 2)
  %38 = zext nneg i32 %36 to i64
  %wide.trip.count127 = zext nneg i32 %7 to i64
  %invariant.gep132 = getelementptr inbounds nuw i8, ptr %2, i64 %38
  %wide.trip.count119 = zext nneg i32 %umax to i64
  br label %.lr.ph111.split.us

.lr.ph111.split.us:                               ; preds = %._crit_edge, %.loopexit.us
  %indvars.iv124 = phi i64 [ 0, %._crit_edge ], [ %indvars.iv.next125, %.loopexit.us ]
  %39 = getelementptr inbounds nuw [2 x i8], ptr %0, i64 %indvars.iv124
  %40 = load i8, ptr %39, align 1, !tbaa !27
  %41 = zext i8 %40 to i32
  %indvars.iv.next125 = add nuw nsw i64 %indvars.iv124, 1
  %42 = getelementptr inbounds nuw [2 x i8], ptr %0, i64 %indvars.iv.next125
  %43 = load i8, ptr %42, align 1, !tbaa !27
  %44 = zext i8 %43 to i32
  %45 = sub nsw i32 %44, %41
  %46 = icmp sgt i32 %45, 0
  br i1 %46, label %.lr.ph104.us.us.preheader, label %.loopexit.us

.lr.ph104.us.us.preheader:                        ; preds = %.lr.ph111.split.us
  %47 = shl nsw i32 %45, %5
  %48 = shl nuw nsw i32 %41, %5
  %49 = zext nneg i32 %48 to i64
  %50 = zext nneg i32 %47 to i64
  br label %.lr.ph104.us.us

.loopexit.us:                                     ; preds = %._crit_edge105.us.us, %.lr.ph111.split.us
  %exitcond128.not = icmp eq i64 %indvars.iv.next125, %wide.trip.count127
  br i1 %exitcond128.not, label %.loopexit95, label %.lr.ph111.split.us, !llvm.loop !147

.lr.ph104.us.us:                                  ; preds = %.lr.ph104.us.us.preheader, %._crit_edge105.us.us
  %indvars.iv121 = phi i64 [ 0, %.lr.ph104.us.us.preheader ], [ %indvars.iv.next122, %._crit_edge105.us.us ]
  %51 = add nuw nsw i64 %indvars.iv121, %49
  %gep133 = getelementptr inbounds nuw i8, ptr %invariant.gep132, i64 %51
  %52 = load i8, ptr %gep133, align 1, !tbaa !27
  %53 = zext i8 %52 to i32
  %54 = getelementptr inbounds nuw i8, ptr %2, i64 %51
  %55 = load i8, ptr %54, align 1, !tbaa !27
  %56 = zext i8 %55 to i32
  %57 = sub nsw i32 %53, %56
  %invariant.gep = getelementptr inbounds nuw i8, ptr %2, i64 %51
  br label %58

58:                                               ; preds = %58, %.lr.ph104.us.us
  %indvars.iv116 = phi i64 [ %indvars.iv.next117, %58 ], [ 1, %.lr.ph104.us.us ]
  %.0102.us.us = phi i32 [ %59, %58 ], [ %37, %.lr.ph104.us.us ]
  %59 = add nsw i32 %.0102.us.us, %57
  %60 = ashr i32 %59, %5
  %61 = trunc i32 %60 to i8
  %62 = add i8 %55, %61
  %gep = getelementptr inbounds nuw i8, ptr %invariant.gep, i64 %indvars.iv116
  store i8 %62, ptr %gep, align 1, !tbaa !27
  %indvars.iv.next117 = add nuw nsw i64 %indvars.iv116, 1
  %exitcond120.not = icmp eq i64 %indvars.iv.next117, %wide.trip.count119
  br i1 %exitcond120.not, label %._crit_edge105.us.us, label %58, !llvm.loop !148

._crit_edge105.us.us:                             ; preds = %58
  %indvars.iv.next122 = add nuw nsw i64 %indvars.iv121, %38
  %63 = icmp samesign ult i64 %indvars.iv.next122, %50
  br i1 %63, label %.lr.ph104.us.us, label %.loopexit.us, !llvm.loop !149

.lr.ph100:                                        ; preds = %.lr.ph100.preheader, %.loopexit96
  %indvars.iv = phi i64 [ 0, %.lr.ph100.preheader ], [ %indvars.iv.next, %.loopexit96 ]
  %64 = getelementptr inbounds nuw [2 x i8], ptr %0, i64 %indvars.iv
  %65 = load i8, ptr %64, align 1, !tbaa !27
  %66 = zext i8 %65 to i32
  %67 = getelementptr inbounds nuw i8, ptr %64, i64 1
  %68 = load i8, ptr %67, align 1, !tbaa !27
  %69 = zext i8 %68 to i32
  %indvars.iv.next = add nuw nsw i64 %indvars.iv, 1
  %70 = getelementptr inbounds nuw [2 x i8], ptr %0, i64 %indvars.iv.next
  %71 = load i8, ptr %70, align 1, !tbaa !27
  %72 = zext i8 %71 to i32
  %73 = getelementptr inbounds nuw i8, ptr %70, i64 1
  %74 = load i8, ptr %73, align 1, !tbaa !27
  %75 = zext i8 %74 to i32
  %76 = sub nsw i32 %72, %66
  %77 = sub nsw i32 %75, %69
  %78 = ashr i32 %76, 1
  %79 = add nsw i32 %78, 65536
  %80 = sdiv i32 %79, %76
  %81 = mul nsw i32 %77, %80
  %82 = icmp sgt i32 %76, 0
  br i1 %82, label %.lr.ph, label %.loopexit96

.lr.ph:                                           ; preds = %.lr.ph100, %.lr.ph
  %.08998 = phi i32 [ %91, %.lr.ph ], [ 0, %.lr.ph100 ]
  %.09097 = phi i32 [ %90, %.lr.ph ], [ 32768, %.lr.ph100 ]
  %83 = lshr i32 %.09097, 16
  %84 = trunc i32 %83 to i8
  %85 = add i8 %68, %84
  %86 = add nuw nsw i32 %.08998, %66
  %87 = shl i32 %86, %5
  %88 = sext i32 %87 to i64
  %89 = getelementptr inbounds i8, ptr %2, i64 %88
  store i8 %85, ptr %89, align 1, !tbaa !27
  %90 = add nsw i32 %.09097, %81
  %91 = add nuw nsw i32 %.08998, 1
  %exitcond.not = icmp eq i32 %91, %76
  br i1 %exitcond.not, label %.loopexit96, label %.lr.ph, !llvm.loop !150

.loopexit95:                                      ; preds = %.loopexit.us, %._crit_edge.thread, %14
  ret void
}